target datalayout = "e-m:e-p270:32:32-p271:32:32-p272:64:64-i64:64-i128:128-f80:128-n8:16:32:64-S128"
target triple = "x86_64-pc-linux-gnu"

%"class.ncnn::Mat" = type { ptr, ptr, i64, i32, ptr, i32, i32, i32, i32, i32, i64 }

; Function Attrs: mustprogress uwtable
define hidden void @_ZN4ncnn3Mat11create_likeERKS0_PNS_9AllocatorE(ptr noundef nonnull align 8 dereferenceable(72) %0, ptr noundef nonnull align 8 dereferenceable(72) %1, ptr noundef %2) #0 align 2 {
  %4 = alloca ptr, align 8
  %5 = alloca ptr, align 8
  %6 = alloca ptr, align 8
  %7 = alloca i32, align 4
  store ptr %0, ptr %4, align 8, !tbaa !4
  store ptr %1, ptr %5, align 8, !tbaa !4
  store ptr %2, ptr %6, align 8, !tbaa !9
  %8 = load ptr, ptr %4, align 8
  call void @llvm.lifetime.start.p0(i64 4, ptr %7) #9
  %9 = load ptr, ptr %5, align 8, !tbaa !4
  %10 = getelementptr inbounds nuw %"class.ncnn::Mat", ptr %9, i32 0, i32 5
  %11 = load i32, ptr %10, align 8, !tbaa !11
  store i32 %11, ptr %7, align 4, !tbaa !25
  %12 = load i32, ptr %7, align 4, !tbaa !25
  %13 = icmp eq i32 %12, 1
  br i1 %13, label %14, label %25

14:                                               ; preds = %3
  %15 = load ptr, ptr %5, align 8, !tbaa !4
  %16 = getelementptr inbounds nuw %"class.ncnn::Mat", ptr %15, i32 0, i32 6
  %17 = load i32, ptr %16, align 4, !tbaa !16
  %18 = load ptr, ptr %5, align 8, !tbaa !4
  %19 = getelementptr inbounds nuw %"class.ncnn::Mat", ptr %18, i32 0, i32 2
  %20 = load i64, ptr %19, align 8, !tbaa !17
  %21 = load ptr, ptr %5, align 8, !tbaa !4
  %22 = getelementptr inbounds nuw %"class.ncnn::Mat", ptr %21, i32 0, i32 3
  %23 = load i32, ptr %22, align 8, !tbaa !18
  %24 = load ptr, ptr %6, align 8, !tbaa !9
  call void @_ZN4ncnn3Mat6createEimiPNS_9AllocatorE(ptr noundef nonnull align 8 dereferenceable(72) %8, i32 noundef %17, i64 noundef %20, i32 noundef %23, ptr noundef %24)
  br label %25

25:                                               ; preds = %14, %3
  %26 = load i32, ptr %7, align 4, !tbaa !25
  %27 = icmp eq i32 %26, 2
  br i1 %27, label %28, label %42

28:                                               ; preds = %25
  %29 = load ptr, ptr %5, align 8, !tbaa !4
  %30 = getelementptr inbounds nuw %"class.ncnn::Mat", ptr %29, i32 0, i32 6
  %31 = load i32, ptr %30, align 4, !tbaa !16
  %32 = load ptr, ptr %5, align 8, !tbaa !4
  %33 = getelementptr inbounds nuw %"class.ncnn::Mat", ptr %32, i32 0, i32 7
  %34 = load i32, ptr %33, align 8, !tbaa !19
  %35 = load ptr, ptr %5, align 8, !tbaa !4
  %36 = getelementptr inbounds nuw %"class.ncnn::Mat", ptr %35, i32 0, i32 2
  %37 = load i64, ptr %36, align 8, !tbaa !17
  %38 = load ptr, ptr %5, align 8, !tbaa !4
  %39 = getelementptr inbounds nuw %"class.ncnn::Mat", ptr %38, i32 0, i32 3
  %40 = load i32, ptr %39, align 8, !tbaa !18
  %41 = load ptr, ptr %6, align 8, !tbaa !9
  call void @_ZN4ncnn3Mat6createEiimiPNS_9AllocatorE(ptr noundef nonnull align 8 dereferenceable(72) %8, i32 noundef %31, i32 noundef %34, i64 noundef %37, i32 noundef %40, ptr noundef %41)
  br label %42

42:                                               ; preds = %28, %25
  %43 = load i32, ptr %7, align 4, !tbaa !25
  %44 = icmp eq i32 %43, 3
  br i1 %44, label %45, label %62

45:                                               ; preds = %42
  %46 = load ptr, ptr %5, align 8, !tbaa !4
  %47 = getelementptr inbounds nuw %"class.ncnn::Mat", ptr %46, i32 0, i32 6
  %48 = load i32, ptr %47, align 4, !tbaa !16
  %49 = load ptr, ptr %5, align 8, !tbaa !4
  %50 = getelementptr inbounds nuw %"class.ncnn::Mat", ptr %49, i32 0, i32 7
  %51 = load i32, ptr %50, align 8, !tbaa !19
  %52 = load ptr, ptr %5, align 8, !tbaa !4
  %53 = getelementptr inbounds nuw %"class.ncnn::Mat", ptr %52, i32 0, i32 9
  %54 = load i32, ptr %53, align 8, !tbaa !20
  %55 = load ptr, ptr %5, align 8, !tbaa !4
  %56 = getelementptr inbounds nuw %"class.ncnn::Mat", ptr %55, i32 0, i32 2
  %57 = load i64, ptr %56, align 8, !tbaa !17
  %58 = load ptr, ptr %5, align 8, !tbaa !4
  %59 = getelementptr inbounds nuw %"class.ncnn::Mat", ptr %58, i32 0, i32 3
  %60 = load i32, ptr %59, align 8, !tbaa !18
  %61 = load ptr, ptr %6, align 8, !tbaa !9
  call void @_ZN4ncnn3Mat6createEiiimiPNS_9AllocatorE(ptr noundef nonnull align 8 dereferenceable(72) %8, i32 noundef %48, i32 noundef %51, i32 noundef %54, i64 noundef %57, i32 noundef %60, ptr noundef %61)
  br label %62

62:                                               ; preds = %45, %42
  %63 = load i32, ptr %7, align 4, !tbaa !25
  %64 = icmp eq i32 %63, 4
  br i1 %64, label %65, label %85

65:                                               ; preds = %62
  %66 = load ptr, ptr %5, align 8, !tbaa !4
  %67 = getelementptr inbounds nuw %"class.ncnn::Mat", ptr %66, i32 0, i32 6
  %68 = load i32, ptr %67, align 4, !tbaa !16
  %69 = load ptr, ptr %5, align 8, !tbaa !4
  %70 = getelementptr inbounds nuw %"class.ncnn::Mat", ptr %69, i32 0, i32 7
  %71 = load i32, ptr %70, align 8, !tbaa !19
  %72 = load ptr, ptr %5, align 8, !tbaa !4
  %73 = getelementptr inbounds nuw %"class.ncnn::Mat", ptr %72, i32 0, i32 8
  %74 = load i32, ptr %73, align 4, !tbaa !21
  %75 = load ptr, ptr %5, align 8, !tbaa !4
  %76 = getelementptr inbounds nuw %"class.ncnn::Mat", ptr %75, i32 0, i32 9
  %77 = load i32, ptr %76, align 8, !tbaa !20
  %78 = load ptr, ptr %5, align 8, !tbaa !4
  %79 = getelementptr inbounds nuw %"class.ncnn::Mat", ptr %78, i32 0, i32 2
  %80 = load i64, ptr %79, align 8, !tbaa !17
  %81 = load ptr, ptr %5, align 8, !tbaa !4
  %82 = getelementptr inbounds nuw %"class.ncnn::Mat", ptr %81, i32 0, i32 3
  %83 = load i32, ptr %82, align 8, !tbaa !18
  %84 = load ptr, ptr %6, align 8, !tbaa !9
  call void @_ZN4ncnn3Mat6createEiiiimiPNS_9AllocatorE(ptr noundef nonnull align 8 dereferenceable(72) %8, i32 noundef %68, i32 noundef %71, i32 noundef %74, i32 noundef %77, i64 noundef %80, i32 noundef %83, ptr noundef %84)
  br label %85

85:                                               ; preds = %65, %62
  call void @llvm.lifetime.end.p0(i64 4, ptr %7) #9
  ret void
}