; Function Attrs: mustprogress uwtable
define hidden void @_ZN4ncnn3Mat11create_likeERKS0_PNS_9AllocatorE(ptr noundef nonnull align 8 captures(none) dereferenceable(72) %0, ptr noundef nonnull readonly align 8 captures(none) dereferenceable(72) %1, ptr noundef %2) local_unnamed_addr #0 align 2 {
  %4 = getelementptr inbounds nuw i8, ptr %1, i64 40
  %5 = load i32, ptr %4, align 8, !tbaa !15
  switch i32 %5, label %46 [
    i32 1, label %6
    i32 2, label %13
    i32 3, label %22
    i32 4, label %33
  ]

6:                                                ; preds = %3
  %7 = getelementptr inbounds nuw i8, ptr %1, i64 44
  %8 = load i32, ptr %7, align 4, !tbaa !16
  %9 = getelementptr inbounds nuw i8, ptr %1, i64 16
  %10 = load i64, ptr %9, align 8, !tbaa !17
  %11 = getelementptr inbounds nuw i8, ptr %1, i64 24
  %12 = load i32, ptr %11, align 8, !tbaa !18
  tail call void @_ZN4ncnn3Mat6createEimiPNS_9AllocatorE(ptr noundef nonnull align 8 dereferenceable(72) %0, i32 noundef %8, i64 noundef %10, i32 noundef %12, ptr noundef %2)
  br label %46

13:                                               ; preds = %3
  %14 = getelementptr inbounds nuw i8, ptr %1, i64 44
  %15 = load i32, ptr %14, align 4, !tbaa !16
  %16 = getelementptr inbounds nuw i8, ptr %1, i64 48
  %17 = load i32, ptr %16, align 8, !tbaa !20
  %18 = getelementptr inbounds nuw i8, ptr %1, i64 16
  %19 = load i64, ptr %18, align 8, !tbaa !17
  %20 = getelementptr inbounds nuw i8, ptr %1, i64 24
  %21 = load i32, ptr %20, align 8, !tbaa !18
  tail call void @_ZN4ncnn3Mat6createEiimiPNS_9AllocatorE(ptr noundef nonnull align 8 dereferenceable(72) %0, i32 noundef %15, i32 noundef %17, i64 noundef %19, i32 noundef %21, ptr noundef %2)
  br label %46

22:                                               ; preds = %3
  %23 = getelementptr inbounds nuw i8, ptr %1, i64 44
  %24 = load i32, ptr %23, align 4, !tbaa !16
  %25 = getelementptr inbounds nuw i8, ptr %1, i64 48
  %26 = load i32, ptr %25, align 8, !tbaa !20
  %27 = getelementptr inbounds nuw i8, ptr %1, i64 56
  %28 = load i32, ptr %27, align 8, !tbaa !14
  %29 = getelementptr inbounds nuw i8, ptr %1, i64 16
  %30 = load i64, ptr %29, align 8, !tbaa !17
  %31 = getelementptr inbounds nuw i8, ptr %1, i64 24
  %32 = load i32, ptr %31, align 8, !tbaa !18
  tail call void @_ZN4ncnn3Mat6createEiiimiPNS_9AllocatorE(ptr noundef nonnull align 8 dereferenceable(72) %0, i32 noundef %24, i32 noundef %26, i32 noundef %28, i64 noundef %30, i32 noundef %32, ptr noundef %2)
  br label %46

33:                                               ; preds = %3
  %34 = getelementptr inbounds nuw i8, ptr %1, i64 44
  %35 = load i32, ptr %34, align 4, !tbaa !16
  %36 = getelementptr inbounds nuw i8, ptr %1, i64 48
  %37 = load i32, ptr %36, align 8, !tbaa !20
  %38 = getelementptr inbounds nuw i8, ptr %1, i64 52
  %39 = load i32, ptr %38, align 4, !tbaa !21
  %40 = getelementptr inbounds nuw i8, ptr %1, i64 56
  %41 = load i32, ptr %40, align 8, !tbaa !14
  %42 = getelementptr inbounds nuw i8, ptr %1, i64 16
  %43 = load i64, ptr %42, align 8, !tbaa !17
  %44 = getelementptr inbounds nuw i8, ptr %1, i64 24
  %45 = load i32, ptr %44, align 8, !tbaa !18
  tail call void @_ZN4ncnn3Mat6createEiiiimiPNS_9AllocatorE(ptr noundef nonnull align 8 dereferenceable(72) %0, i32 noundef %35, i32 noundef %37, i32 noundef %39, i32 noundef %41, i64 noundef %43, i32 noundef %45, ptr noundef %2)
  br label %46

46:                                               ; preds = %22, %13, %6, %3, %33
  ret void
}